; ModuleID = '50/2405.c'
source_filename = "50/2405.c"
target datalayout = "e-m:e-p270:32:32-p271:32:32-p272:64:64-i64:64-f80:128-n8:16:32:64-S128"
target triple = "x86_64-pc-linux-gnu"

@.str = private unnamed_addr constant [3 x i8] c"%d\00", align 1
@.str.1 = private unnamed_addr constant [4 x i8] c"%d\0A\00", align 1

; Function Attrs: noinline nounwind uwtable
define dso_local i32 @main() #0 {
  %1 = alloca i32, align 4
  %2 = alloca i32, align 4
  %3 = alloca i32, align 4
  %4 = alloca i32, align 4
  %5 = alloca i32, align 4
  store i32 0, i32* %1, align 4
  %6 = call i32 (i8*, ...) @__isoc99_scanf(i8* getelementptr inbounds ([3 x i8], [3 x i8]* @.str, i64 0, i64 0), i32* %2)
  store i32 1, i32* %3, align 4
  store i32 13, i32* %4, align 4
  br label %7

7:                                                ; preds = %63, %0
  %8 = load i32, i32* %3, align 4
  %9 = icmp sle i32 %8, 12
  br i1 %9, label %10, label %66

10:                                               ; preds = %7
  %11 = load i32, i32* %4, align 4
  %12 = sub nsw i32 %11, 1
  %13 = srem i32 %12, 7
  store i32 %13, i32* %5, align 4
  %14 = load i32, i32* %5, align 4
  %15 = load i32, i32* %2, align 4
  %16 = add nsw i32 %14, %15
  %17 = srem i32 %16, 7
  %18 = icmp eq i32 %17, 5
  br i1 %18, label %19, label %22

19:                                               ; preds = %10
  %20 = load i32, i32* %3, align 4
  %21 = call i32 (i8*, ...) @printf(i8* getelementptr inbounds ([4 x i8], [4 x i8]* @.str.1, i64 0, i64 0), i32 %20)
  br label %22

22:                                               ; preds = %19, %10
  %23 = load i32, i32* %3, align 4
  %24 = icmp eq i32 %23, 1
  br i1 %24, label %40, label %25

25:                                               ; preds = %22
  %26 = load i32, i32* %3, align 4
  %27 = icmp eq i32 %26, 3
  br i1 %27, label %40, label %28

28:                                               ; preds = %25
  %29 = load i32, i32* %3, align 4
  %30 = icmp eq i32 %29, 5
  br i1 %30, label %40, label %31

31:                                               ; preds = %28
  %32 = load i32, i32* %3, align 4
  %33 = icmp eq i32 %32, 7
  br i1 %33, label %40, label %34

34:                                               ; preds = %31
  %35 = load i32, i32* %3, align 4
  %36 = icmp eq i32 %35, 8
  br i1 %36, label %40, label %37

37:                                               ; preds = %34
  %38 = load i32, i32* %3, align 4
  %39 = icmp eq i32 %38, 10
  br i1 %39, label %40, label %43

40:                                               ; preds = %37, %34, %31, %28, %25, %22
  %41 = load i32, i32* %4, align 4
  %42 = add nsw i32 %41, 31
  store i32 %42, i32* %4, align 4
  br label %62

43:                                               ; preds = %37
  %44 = load i32, i32* %3, align 4
  %45 = icmp eq i32 %44, 4
  br i1 %45, label %55, label %46

46:                                               ; preds = %43
  %47 = load i32, i32* %3, align 4
  %48 = icmp eq i32 %47, 6
  br i1 %48, label %55, label %49

49:                                               ; preds = %46
  %50 = load i32, i32* %3, align 4
  %51 = icmp eq i32 %50, 9
  br i1 %51, label %55, label %52

52:                                               ; preds = %49
  %53 = load i32, i32* %3, align 4
  %54 = icmp eq i32 %53, 11
  br i1 %54, label %55, label %58

55:                                               ; preds = %52, %49, %46, %43
  %56 = load i32, i32* %4, align 4
  %57 = add nsw i32 %56, 30
  store i32 %57, i32* %4, align 4
  br label %61

58:                                               ; preds = %52
  %59 = load i32, i32* %4, align 4
  %60 = add nsw i32 %59, 28
  store i32 %60, i32* %4, align 4
  br label %61

61:                                               ; preds = %58, %55
  br label %62

62:                                               ; preds = %61, %40
  br label %63

63:                                               ; preds = %62
  %64 = load i32, i32* %3, align 4
  %65 = add nsw i32 %64, 1
  store i32 %65, i32* %3, align 4
  br label %7

66:                                               ; preds = %7
  %67 = load i32, i32* %1, align 4
  ret i32 %67
}

declare dso_local i32 @__isoc99_scanf(i8*, ...) #1

declare dso_local i32 @printf(i8*, ...) #1


!llvm.module.flags = !{!0}
!llvm.ident = !{!1}

!0 = !{i32 1, !"wchar_size", i32 4}
!1 = !{!"clang version 10.0.0-4ubuntu1 "}
